target datalayout = "e-m:e-p270:32:32-p271:32:32-p272:64:64-i64:64-i128:128-f80:128-n8:16:32:64-S128"
target triple = "x86_64-pc-linux-gnu"

%struct.freelist = type { ptr, ptr, i32 }
%struct.Halfedge = type { ptr, ptr, ptr, i32, i8, ptr, double, ptr }
%struct.Point = type { double, double }

@hfl = internal global %struct.freelist zeroinitializer, align 8
@ELhash = internal global ptr null, align 8
@ELhashsize = internal global i32 0, align 4
@ELleftend = global ptr null, align 8
@ELrightend = global ptr null, align 8
@xmin = external global double, align 8
@deltax = external global double, align 8

; Function Attrs: nounwind uwtable
define internal ptr @ELgethash(i32 noundef %0) #0 {
  %2 = alloca ptr, align 8
  %3 = alloca i32, align 4
  %4 = alloca ptr, align 8
  %5 = alloca i32, align 4
  store i32 %0, ptr %3, align 4, !tbaa !8
  call void @llvm.lifetime.start.p0(i64 8, ptr %4) #9
  %6 = load i32, ptr %3, align 4, !tbaa !8
  %7 = icmp slt i32 %6, 0
  br i1 %7, label %12, label %8

8:                                                ; preds = %1
  %9 = load i32, ptr %3, align 4, !tbaa !8
  %10 = load i32, ptr @ELhashsize, align 4, !tbaa !8
  %11 = icmp sge i32 %9, %10
  br i1 %11, label %12, label %13

12:                                               ; preds = %8, %1
  store ptr null, ptr %2, align 8
  store i32 1, ptr %5, align 4
  br label %41

13:                                               ; preds = %8
  %14 = load ptr, ptr @ELhash, align 8, !tbaa !3
  %15 = load i32, ptr %3, align 4, !tbaa !8
  %16 = sext i32 %15 to i64
  %17 = getelementptr inbounds ptr, ptr %14, i64 %16
  %18 = load ptr, ptr %17, align 8, !tbaa !10
  store ptr %18, ptr %4, align 8, !tbaa !10
  %19 = load ptr, ptr %4, align 8, !tbaa !10
  %20 = icmp eq ptr %19, null
  br i1 %20, label %26, label %21

21:                                               ; preds = %13
  %22 = load ptr, ptr %4, align 8, !tbaa !10
  %23 = getelementptr inbounds nuw %struct.Halfedge, ptr %22, i32 0, i32 2
  %24 = load ptr, ptr %23, align 8, !tbaa !27
  %25 = icmp ne ptr %24, inttoptr (i64 -2 to ptr)
  br i1 %25, label %26, label %28

26:                                               ; preds = %21, %13
  %27 = load ptr, ptr %4, align 8, !tbaa !10
  store ptr %27, ptr %2, align 8
  store i32 1, ptr %5, align 4
  br label %41

28:                                               ; preds = %21
  %29 = load ptr, ptr @ELhash, align 8, !tbaa !3
  %30 = load i32, ptr %3, align 4, !tbaa !8
  %31 = sext i32 %30 to i64
  %32 = getelementptr inbounds ptr, ptr %29, i64 %31
  store ptr null, ptr %32, align 8, !tbaa !10
  %33 = load ptr, ptr %4, align 8, !tbaa !10
  %34 = getelementptr inbounds nuw %struct.Halfedge, ptr %33, i32 0, i32 3
  %35 = load i32, ptr %34, align 8, !tbaa !31
  %36 = add nsw i32 %35, -1
  store i32 %36, ptr %34, align 8, !tbaa !31
  %37 = icmp eq i32 %36, 0
  br i1 %37, label %38, label %40

38:                                               ; preds = %28
  %39 = load ptr, ptr %4, align 8, !tbaa !10
  call void @makefree(ptr noundef %39, ptr noundef @hfl)
  br label %40

40:                                               ; preds = %38, %28
  store ptr null, ptr %2, align 8
  store i32 1, ptr %5, align 4
  br label %41

41:                                               ; preds = %40, %26, %12
  call void @llvm.lifetime.end.p0(i64 8, ptr %4) #9
  %42 = load ptr, ptr %2, align 8
  ret ptr %42
}

; Function Attrs: nounwind uwtable
define ptr @ELleftbnd(ptr noundef %0) #0 {
  %2 = alloca ptr, align 8
  %3 = alloca i32, align 4
  %4 = alloca i32, align 4
  %5 = alloca ptr, align 8
  store ptr %0, ptr %2, align 8, !tbaa !47
  call void @llvm.lifetime.start.p0(i64 4, ptr %3) #9
  call void @llvm.lifetime.start.p0(i64 4, ptr %4) #9
  call void @llvm.lifetime.start.p0(i64 8, ptr %5) #9
  %6 = load ptr, ptr %2, align 8, !tbaa !47
  %7 = getelementptr inbounds nuw %struct.Point, ptr %6, i32 0, i32 0
  %8 = load double, ptr %7, align 8, !tbaa !49
  %9 = load double, ptr @xmin, align 8, !tbaa !36
  %10 = fsub double %8, %9
  %11 = load double, ptr @deltax, align 8, !tbaa !36
  %12 = fdiv double %10, %11
  %13 = load i32, ptr @ELhashsize, align 4, !tbaa !8
  %14 = sitofp i32 %13 to double
  %15 = fmul double %12, %14
  %16 = fptosi double %15 to i32
  store i32 %16, ptr %4, align 4, !tbaa !8
  %17 = load i32, ptr %4, align 4, !tbaa !8
  %18 = icmp slt i32 %17, 0
  br i1 %18, label %19, label %20

19:                                               ; preds = %1
  store i32 0, ptr %4, align 4, !tbaa !8
  br label %20

20:                                               ; preds = %19, %1
  %21 = load i32, ptr %4, align 4, !tbaa !8
  %22 = load i32, ptr @ELhashsize, align 4, !tbaa !8
  %23 = icmp sge i32 %21, %22
  br i1 %23, label %24, label %27

24:                                               ; preds = %20
  %25 = load i32, ptr @ELhashsize, align 4, !tbaa !8
  %26 = sub nsw i32 %25, 1
  store i32 %26, ptr %4, align 4, !tbaa !8
  br label %27

27:                                               ; preds = %24, %20
  %28 = load i32, ptr %4, align 4, !tbaa !8
  %29 = call ptr @ELgethash(i32 noundef %28)
  store ptr %29, ptr %5, align 8, !tbaa !10
  %30 = load ptr, ptr %5, align 8, !tbaa !10
  %31 = icmp eq ptr %30, null
  br i1 %31, label %32, label %52

32:                                               ; preds = %27
  store i32 1, ptr %3, align 4, !tbaa !8
  br label %33

33:                                               ; preds = %48, %32
  %34 = load i32, ptr %4, align 4, !tbaa !8
  %35 = load i32, ptr %3, align 4, !tbaa !8
  %36 = sub nsw i32 %34, %35
  %37 = call ptr @ELgethash(i32 noundef %36)
  store ptr %37, ptr %5, align 8, !tbaa !10
  %38 = icmp ne ptr %37, null
  br i1 %38, label %39, label %40

39:                                               ; preds = %33
  br label %51

40:                                               ; preds = %33
  %41 = load i32, ptr %4, align 4, !tbaa !8
  %42 = load i32, ptr %3, align 4, !tbaa !8
  %43 = add nsw i32 %41, %42
  %44 = call ptr @ELgethash(i32 noundef %43)
  store ptr %44, ptr %5, align 8, !tbaa !10
  %45 = icmp ne ptr %44, null
  br i1 %45, label %46, label %47

46:                                               ; preds = %40
  br label %51

47:                                               ; preds = %40
  br label %48

48:                                               ; preds = %47
  %49 = load i32, ptr %3, align 4, !tbaa !8
  %50 = add nsw i32 %49, 1
  store i32 %50, ptr %3, align 4, !tbaa !8
  br label %33

51:                                               ; preds = %46, %39
  br label %52

52:                                               ; preds = %51, %27
  %53 = load ptr, ptr %5, align 8, !tbaa !10
  %54 = load ptr, ptr @ELleftend, align 8, !tbaa !10
  %55 = icmp eq ptr %53, %54
  br i1 %55, label %65, label %56

56:                                               ; preds = %52
  %57 = load ptr, ptr %5, align 8, !tbaa !10
  %58 = load ptr, ptr @ELrightend, align 8, !tbaa !10
  %59 = icmp ne ptr %57, %58
  br i1 %59, label %60, label %85

60:                                               ; preds = %56
  %61 = load ptr, ptr %5, align 8, !tbaa !10
  %62 = load ptr, ptr %2, align 8, !tbaa !47
  %63 = call i32 @right_of(ptr noundef %61, ptr noundef %62)
  %64 = icmp ne i32 %63, 0
  br i1 %64, label %65, label %85

65:                                               ; preds = %60, %52
  br label %66

66:                                               ; preds = %79, %65
  %67 = load ptr, ptr %5, align 8, !tbaa !10
  %68 = getelementptr inbounds nuw %struct.Halfedge, ptr %67, i32 0, i32 1
  %69 = load ptr, ptr %68, align 8, !tbaa !19
  store ptr %69, ptr %5, align 8, !tbaa !10
  br label %70

70:                                               ; preds = %66
  %71 = load ptr, ptr %5, align 8, !tbaa !10
  %72 = load ptr, ptr @ELrightend, align 8, !tbaa !10
  %73 = icmp ne ptr %71, %72
  br i1 %73, label %74, label %79

74:                                               ; preds = %70
  %75 = load ptr, ptr %5, align 8, !tbaa !10
  %76 = load ptr, ptr %2, align 8, !tbaa !47
  %77 = call i32 @right_of(ptr noundef %75, ptr noundef %76)
  %78 = icmp ne i32 %77, 0
  br label %79

79:                                               ; preds = %74, %70
  %80 = phi i1 [ false, %70 ], [ %78, %74 ]
  br i1 %80, label %66, label %81, !llvm.loop !51

81:                                               ; preds = %79
  %82 = load ptr, ptr %5, align 8, !tbaa !10
  %83 = getelementptr inbounds nuw %struct.Halfedge, ptr %82, i32 0, i32 0
  %84 = load ptr, ptr %83, align 8, !tbaa !14
  store ptr %84, ptr %5, align 8, !tbaa !10
  br label %103

85:                                               ; preds = %60, %56
  br label %86

86:                                               ; preds = %100, %85
  %87 = load ptr, ptr %5, align 8, !tbaa !10
  %88 = getelementptr inbounds nuw %struct.Halfedge, ptr %87, i32 0, i32 0
  %89 = load ptr, ptr %88, align 8, !tbaa !14
  store ptr %89, ptr %5, align 8, !tbaa !10
  br label %90

90:                                               ; preds = %86
  %91 = load ptr, ptr %5, align 8, !tbaa !10
  %92 = load ptr, ptr @ELleftend, align 8, !tbaa !10
  %93 = icmp ne ptr %91, %92
  br i1 %93, label %94, label %100

94:                                               ; preds = %90
  %95 = load ptr, ptr %5, align 8, !tbaa !10
  %96 = load ptr, ptr %2, align 8, !tbaa !47
  %97 = call i32 @right_of(ptr noundef %95, ptr noundef %96)
  %98 = icmp ne i32 %97, 0
  %99 = xor i1 %98, true
  br label %100

100:                                              ; preds = %94, %90
  %101 = phi i1 [ false, %90 ], [ %99, %94 ]
  br i1 %101, label %86, label %102, !llvm.loop !52

102:                                              ; preds = %100
  br label %103

103:                                              ; preds = %102, %81
  %104 = load i32, ptr %4, align 4, !tbaa !8
  %105 = icmp sgt i32 %104, 0
  br i1 %105, label %106, label %141

106:                                              ; preds = %103
  %107 = load i32, ptr %4, align 4, !tbaa !8
  %108 = load i32, ptr @ELhashsize, align 4, !tbaa !8
  %109 = sub nsw i32 %108, 1
  %110 = icmp slt i32 %107, %109
  br i1 %110, label %111, label %141

111:                                              ; preds = %106
  %112 = load ptr, ptr @ELhash, align 8, !tbaa !3
  %113 = load i32, ptr %4, align 4, !tbaa !8
  %114 = sext i32 %113 to i64
  %115 = getelementptr inbounds ptr, ptr %112, i64 %114
  %116 = load ptr, ptr %115, align 8, !tbaa !10
  %117 = icmp ne ptr %116, null
  br i1 %117, label %118, label %127

118:                                              ; preds = %111
  %119 = load ptr, ptr @ELhash, align 8, !tbaa !3
  %120 = load i32, ptr %4, align 4, !tbaa !8
  %121 = sext i32 %120 to i64
  %122 = getelementptr inbounds ptr, ptr %119, i64 %121
  %123 = load ptr, ptr %122, align 8, !tbaa !10
  %124 = getelementptr inbounds nuw %struct.Halfedge, ptr %123, i32 0, i32 3
  %125 = load i32, ptr %124, align 8, !tbaa !31
  %126 = add nsw i32 %125, -1
  store i32 %126, ptr %124, align 8, !tbaa !31
  br label %127

127:                                              ; preds = %118, %111
  %128 = load ptr, ptr %5, align 8, !tbaa !10
  %129 = load ptr, ptr @ELhash, align 8, !tbaa !3
  %130 = load i32, ptr %4, align 4, !tbaa !8
  %131 = sext i32 %130 to i64
  %132 = getelementptr inbounds ptr, ptr %129, i64 %131
  store ptr %128, ptr %132, align 8, !tbaa !10
  %133 = load ptr, ptr @ELhash, align 8, !tbaa !3
  %134 = load i32, ptr %4, align 4, !tbaa !8
  %135 = sext i32 %134 to i64
  %136 = getelementptr inbounds ptr, ptr %133, i64 %135
  %137 = load ptr, ptr %136, align 8, !tbaa !10
  %138 = getelementptr inbounds nuw %struct.Halfedge, ptr %137, i32 0, i32 3
  %139 = load i32, ptr %138, align 8, !tbaa !31
  %140 = add nsw i32 %139, 1
  store i32 %140, ptr %138, align 8, !tbaa !31
  br label %141

141:                                              ; preds = %127, %106, %103
  %142 = load ptr, ptr %5, align 8, !tbaa !10
  call void @llvm.lifetime.end.p0(i64 8, ptr %5) #9
  call void @llvm.lifetime.end.p0(i64 4, ptr %4) #9
  call void @llvm.lifetime.end.p0(i64 4, ptr %3) #9
  ret ptr %142
}