; Function Attrs: nounwind uwtable
define ptr @ELleftbnd(ptr noundef readonly captures(none) %0) local_unnamed_addr #0 {
  %2 = load double, ptr %0, align 8, !tbaa !36
  %3 = load double, ptr @xmin, align 8, !tbaa !38
  %4 = fsub double %2, %3
  %5 = load double, ptr @deltax, align 8, !tbaa !38
  %6 = fdiv double %4, %5
  %7 = load i32, ptr @ELhashsize, align 4, !tbaa !8
  %8 = sitofp i32 %7 to double
  %9 = fmul double %6, %8
  %10 = fptosi double %9 to i32
  %spec.store.select = tail call i32 @llvm.smax.i32(i32 %10, i32 0)
  %.not = icmp slt i32 %spec.store.select, %7
  %11 = add nsw i32 %7, -1
  %spec.select = select i1 %.not, i32 %spec.store.select, i32 %11
  %12 = icmp sgt i32 %spec.select, -1
  br i1 %12, label %13, label %ELgethash.exit

13:                                               ; preds = %1
  %14 = load ptr, ptr @ELhash, align 8, !tbaa !3
  %15 = zext nneg i32 %spec.select to i64
  %16 = getelementptr inbounds nuw ptr, ptr %14, i64 %15
  %17 = load ptr, ptr %16, align 8, !tbaa !12
  %18 = icmp eq ptr %17, null
  br i1 %18, label %ELgethash.exit, label %19

19:                                               ; preds = %13
  %20 = getelementptr inbounds nuw i8, ptr %17, i64 16
  %21 = load ptr, ptr %20, align 8, !tbaa !14
  %.not11.i = icmp eq ptr %21, inttoptr (i64 -2 to ptr)
  br i1 %.not11.i, label %22, label %ELgethash.exit55

22:                                               ; preds = %19
  store ptr null, ptr %16, align 8, !tbaa !12
  %23 = getelementptr inbounds nuw i8, ptr %17, i64 24
  %24 = load i32, ptr %23, align 8, !tbaa !22
  %25 = add nsw i32 %24, -1
  store i32 %25, ptr %23, align 8, !tbaa !22
  %26 = icmp eq i32 %25, 0
  br i1 %26, label %27, label %ELgethash.exit

27:                                               ; preds = %22
  tail call void @makefree(ptr noundef nonnull %17, ptr noundef nonnull @hfl) #13
  %.pre69.pre = load i32, ptr @ELhashsize, align 4
  br label %ELgethash.exit

ELgethash.exit:                                   ; preds = %1, %13, %22, %27
  %.pre69 = phi i32 [ %7, %1 ], [ %7, %13 ], [ %7, %22 ], [ %.pre69.pre, %27 ]
  %28 = sext i32 %spec.select to i64
  br label %29

29:                                               ; preds = %ELgethash.exit, %66
  %30 = phi i32 [ %.pre69, %ELgethash.exit ], [ %67, %66 ]
  %indvars.iv = phi i64 [ 1, %ELgethash.exit ], [ %indvars.iv.next, %66 ]
  %31 = sub nsw i64 %28, %indvars.iv
  %32 = icmp sgt i64 %31, -1
  %33 = sext i32 %30 to i64
  %.not.i51 = icmp slt i64 %31, %33
  %or.cond.i52 = select i1 %32, i1 %.not.i51, i1 false
  br i1 %or.cond.i52, label %34, label %48

34:                                               ; preds = %29
  %35 = load ptr, ptr @ELhash, align 8, !tbaa !3
  %36 = getelementptr inbounds nuw ptr, ptr %35, i64 %31
  %37 = load ptr, ptr %36, align 8, !tbaa !12
  %38 = icmp eq ptr %37, null
  br i1 %38, label %48, label %39

39:                                               ; preds = %34
  %40 = getelementptr inbounds nuw i8, ptr %37, i64 16
  %41 = load ptr, ptr %40, align 8, !tbaa !14
  %.not11.i54 = icmp eq ptr %41, inttoptr (i64 -2 to ptr)
  br i1 %.not11.i54, label %42, label %ELgethash.exit55

42:                                               ; preds = %39
  store ptr null, ptr %36, align 8, !tbaa !12
  %43 = getelementptr inbounds nuw i8, ptr %37, i64 24
  %44 = load i32, ptr %43, align 8, !tbaa !22
  %45 = add nsw i32 %44, -1
  store i32 %45, ptr %43, align 8, !tbaa !22
  %46 = icmp eq i32 %45, 0
  br i1 %46, label %47, label %48

47:                                               ; preds = %42
  tail call void @makefree(ptr noundef nonnull %37, ptr noundef nonnull @hfl) #13
  %.pre70 = load i32, ptr @ELhashsize, align 4
  %.pre73 = sext i32 %.pre70 to i64
  br label %48

48:                                               ; preds = %29, %34, %47, %42
  %.pre-phi = phi i64 [ %33, %29 ], [ %33, %34 ], [ %.pre73, %47 ], [ %33, %42 ]
  %49 = phi i32 [ %30, %29 ], [ %30, %34 ], [ %.pre70, %47 ], [ %30, %42 ]
  %50 = add nsw i64 %indvars.iv, %28
  %51 = icmp sgt i64 %50, -1
  %.not.i56 = icmp slt i64 %50, %.pre-phi
  %or.cond.i57 = select i1 %51, i1 %.not.i56, i1 false
  br i1 %or.cond.i57, label %52, label %66

52:                                               ; preds = %48
  %53 = load ptr, ptr @ELhash, align 8, !tbaa !3
  %54 = getelementptr inbounds nuw ptr, ptr %53, i64 %50
  %55 = load ptr, ptr %54, align 8, !tbaa !12
  %56 = icmp eq ptr %55, null
  br i1 %56, label %66, label %57

57:                                               ; preds = %52
  %58 = getelementptr inbounds nuw i8, ptr %55, i64 16
  %59 = load ptr, ptr %58, align 8, !tbaa !14
  %.not11.i59 = icmp eq ptr %59, inttoptr (i64 -2 to ptr)
  br i1 %.not11.i59, label %60, label %ELgethash.exit55

60:                                               ; preds = %57
  store ptr null, ptr %54, align 8, !tbaa !12
  %61 = getelementptr inbounds nuw i8, ptr %55, i64 24
  %62 = load i32, ptr %61, align 8, !tbaa !22
  %63 = add nsw i32 %62, -1
  store i32 %63, ptr %61, align 8, !tbaa !22
  %64 = icmp eq i32 %63, 0
  br i1 %64, label %65, label %66

65:                                               ; preds = %60
  tail call void @makefree(ptr noundef nonnull %55, ptr noundef nonnull @hfl) #13
  %.pre = load i32, ptr @ELhashsize, align 4
  br label %66

66:                                               ; preds = %48, %52, %65, %60
  %67 = phi i32 [ %49, %48 ], [ %49, %52 ], [ %.pre, %65 ], [ %49, %60 ]
  %indvars.iv.next = add nuw nsw i64 %indvars.iv, 1
  br label %29

ELgethash.exit55:                                 ; preds = %57, %39, %19
  %68 = phi ptr [ %14, %19 ], [ %53, %57 ], [ %35, %39 ]
  %69 = phi i32 [ %7, %19 ], [ %49, %57 ], [ %30, %39 ]
  %.0 = phi ptr [ %17, %19 ], [ %55, %57 ], [ %37, %39 ]
  %70 = load ptr, ptr @ELleftend, align 8, !tbaa !12
  %71 = icmp eq ptr %.0, %70
  %.pre71 = load ptr, ptr @ELrightend, align 8, !tbaa !12
  br i1 %71, label %.preheader, label %72

72:                                               ; preds = %ELgethash.exit55
  %.not44 = icmp eq ptr %.0, %.pre71
  br i1 %.not44, label %.preheader79, label %73

.preheader79:                                     ; preds = %73, %72
  br label %81

73:                                               ; preds = %72
  %74 = tail call i32 @right_of(ptr noundef nonnull %.0, ptr noundef nonnull %0)
  %.not45 = icmp eq i32 %74, 0
  br i1 %.not45, label %.preheader79, label %.preheader

.preheader:                                       ; preds = %73, %ELgethash.exit55
  br label %75

75:                                               ; preds = %.preheader, %78
  %.1 = phi ptr [ %77, %78 ], [ %.0, %.preheader ]
  %76 = getelementptr inbounds nuw i8, ptr %.1, i64 8
  %77 = load ptr, ptr %76, align 8, !tbaa !24
  %.not48 = icmp eq ptr %77, %.pre71
  br i1 %.not48, label %.critedge, label %78

78:                                               ; preds = %75
  %79 = tail call i32 @right_of(ptr noundef %77, ptr noundef nonnull %0)
  %.not49 = icmp eq i32 %79, 0
  br i1 %.not49, label %.critedge, label %75, !llvm.loop !39

.critedge:                                        ; preds = %75, %78
  %80 = load ptr, ptr %77, align 8, !tbaa !23
  br label %.critedge2

81:                                               ; preds = %.preheader79, %83
  %.3 = phi ptr [ %82, %83 ], [ %.0, %.preheader79 ]
  %82 = load ptr, ptr %.3, align 8, !tbaa !23
  %.not46 = icmp eq ptr %82, %70
  br i1 %.not46, label %.critedge2, label %83

83:                                               ; preds = %81
  %84 = tail call i32 @right_of(ptr noundef %82, ptr noundef nonnull %0)
  %.not47 = icmp eq i32 %84, 0
  br i1 %.not47, label %81, label %.critedge2, !llvm.loop !41

.critedge2:                                       ; preds = %81, %83, %.critedge
  %.2 = phi ptr [ %80, %.critedge ], [ %82, %83 ], [ %82, %81 ]
  %85 = icmp sgt i32 %spec.select, 0
  %86 = add nsw i32 %69, -1
  %87 = icmp slt i32 %spec.select, %86
  %or.cond = select i1 %85, i1 %87, i1 false
  br i1 %or.cond, label %88, label %100

88:                                               ; preds = %.critedge2
  %89 = zext nneg i32 %spec.select to i64
  %90 = getelementptr inbounds nuw ptr, ptr %68, i64 %89
  %91 = load ptr, ptr %90, align 8, !tbaa !12
  %.not50 = icmp eq ptr %91, null
  br i1 %.not50, label %96, label %92

92:                                               ; preds = %88
  %93 = getelementptr inbounds nuw i8, ptr %91, i64 24
  %94 = load i32, ptr %93, align 8, !tbaa !22
  %95 = add nsw i32 %94, -1
  store i32 %95, ptr %93, align 8, !tbaa !22
  br label %96

96:                                               ; preds = %92, %88
  store ptr %.2, ptr %90, align 8, !tbaa !12
  %97 = getelementptr inbounds nuw i8, ptr %.2, i64 24
  %98 = load i32, ptr %97, align 8, !tbaa !22
  %99 = add nsw i32 %98, 1
  store i32 %99, ptr %97, align 8, !tbaa !22
  br label %100

100:                                              ; preds = %96, %.critedge2
  ret ptr %.2
}